ccopy_reg
_reconstructor
p0
(cgoogle.oauth2.credentials
Credentials
p1
c__builtin__
object
p2
Ntp3
Rp4
(dp5
S'_token_uri'
p6
Vhttps://oauth2.googleapis.com/token
p7
sS'_scopes'
p8
(lp9
S'https://www.googleapis.com/auth/spreadsheets.readonly'
p10
asS'_id_token'
p11
NsS'token'
p12
Vya29.ImG9B667K7iKJhjqW2Q2N0WLJTIncKwwsiR2BCwKdNMCYay6ycmUxmNknKEvU0h_vF3ik4vcyMC6W-YCB65zP1Az9D-MxFYV7hNKQTQcyz8ORiXjfMVwRFEjODyvJ6ieGNVO
p13
sS'_refresh_token'
p14
V1/FTJKSk7GpVO6hhvVbN2Lj7xFMnRuyI2rUwzW8SJGmb0
p15
sS'_client_secret'
p16
V6JsvAcvSovLAXHSiYWYt5rK7
p17
sS'_client_id'
p18
V1017366753916-gevuqlkuo2chsvu93rt835v52jhb38rd.apps.googleusercontent.com
p19
sS'expiry'
p20
cdatetime
datetime
p21
(S'\x07\xe4\x02\n\x15\x1f\x19\x06\x14&'
p22
tp23
Rp24
sb.